; Function Attrs: nounwind sspstrong uwtable
define internal fastcc noundef ptr @new_kw_arg(ptr noundef captures(none) %0, ptr noundef %1, ptr noundef nonnull readonly captures(none) %2) unnamed_addr #0 {
  %.not = icmp eq ptr %1, null
  br i1 %.not, label %20, label %4

4:                                                ; preds = %3
  %5 = getelementptr i8, ptr %0, i64 288
  %.val.i.i = load ptr, ptr %5, align 8, !tbaa !120
  %6 = tail call ptr @rb_ast_newnode(ptr noundef %.val.i.i, i32 noundef range(i32 0, 115) 74, i64 noundef range(i64 32, 129) 48, i64 noundef 8) #31
  tail call void @rb_node_init(ptr noundef %6, i32 noundef range(i32 0, 115) 74) #31
  %7 = getelementptr inbounds nuw i8, ptr %6, i64 8
  tail call void @llvm.memcpy.p0.p0.i64(ptr noundef nonnull align 8 dereferenceable(16) %7, ptr noundef nonnull readonly align 4 dereferenceable(16) %2, i64 16, i1 false), !tbaa.struct !11
  %8 = load i32, ptr %2, align 4, !tbaa !51
  %9 = sext i32 %8 to i64
  %10 = load i64, ptr %6, align 8, !tbaa !61
  %11 = and i64 %10, 32767
  %12 = shl nsw i64 %9, 15
  %13 = or disjoint i64 %11, %12
  store i64 %13, ptr %6, align 8, !tbaa !61
  %14 = getelementptr inbounds nuw i8, ptr %0, i64 296
  %15 = load i32, ptr %14, align 8, !tbaa !192
  %16 = add nsw i32 %15, 1
  store i32 %16, ptr %14, align 8, !tbaa !192
  %17 = getelementptr inbounds nuw i8, ptr %6, i64 24
  store i32 %15, ptr %17, align 8, !tbaa !193
  %18 = getelementptr inbounds nuw i8, ptr %6, i64 32
  store ptr %1, ptr %18, align 8, !tbaa !387
  %19 = getelementptr inbounds nuw i8, ptr %6, i64 40
  store ptr null, ptr %19, align 8, !tbaa !389
  br label %20

20:                                               ; preds = %3, %4
  %.0 = phi ptr [ %6, %4 ], [ null, %3 ]
  ret ptr %.0
}